target datalayout = "e-m:e-p270:32:32-p271:32:32-p272:64:64-i64:64-i128:128-f80:128-n8:16:32:64-S128"
target triple = "x86_64-unknown-linux-gnu"

%struct.BlockDriverState = type { i32, i8, i8, i8, i8, i8, ptr, ptr, ptr, %struct.anon, i8, [4096 x i8], [4096 x i8], [4096 x i8], [16 x i8], ptr, [4096 x i8], %struct.BlockLimits, i32, i32, i32, i32, [32 x i8], %union.anon, %union.anon.0, %union.anon.1, i32, [16 x %struct.anon.2], ptr, %struct.anon.3, ptr, ptr, %struct.anon.4, ptr, ptr, i32, ptr, i64, i64, %struct.QemuMutex, %struct.anon.5, %struct.Stat64, i32, i32, i32, i32, i32, i32, %struct.QemuMutex, %struct.anon.6, %struct.CoQueue, i8, i32, i8, %struct.CoMutex, ptr, ptr }
%struct.anon = type { ptr }
%struct.BlockLimits = type { i32, i64, i32, i64, i32, i32, i32, i64, i32, i64, i64, i32, i8, i32, i32, i32, i32, i32, i32, i32 }
%union.anon = type { %struct.QTailQLink }
%struct.QTailQLink = type { ptr, ptr }
%union.anon.0 = type { %struct.QTailQLink }
%union.anon.1 = type { %struct.QTailQLink }
%struct.anon.2 = type { ptr }
%struct.anon.3 = type { ptr }
%struct.anon.4 = type { ptr }
%struct.anon.5 = type { ptr }
%struct.Stat64 = type { i64 }
%struct.QemuMutex = type { %union.pthread_mutex_t, i8 }
%union.pthread_mutex_t = type { %struct.__pthread_mutex_s }
%struct.__pthread_mutex_s = type { i32, i32, i32, i32, i32, i16, i16, %struct.__pthread_internal_list }
%struct.__pthread_internal_list = type { ptr, ptr }
%struct.anon.6 = type { ptr }
%struct.CoQueue = type { %struct.anon.7 }
%struct.anon.7 = type { ptr, ptr }
%struct.CoMutex = type { i32, ptr, %struct.anon.8, %struct.anon.8, i32, i32, ptr }
%struct.anon.8 = type { ptr }
%struct.BDRVQcow2State = type { i32, i32, i32, i32, i32, i32, i32, i32, i32, i32, i32, i32, i32, i32, i64, i64, ptr, ptr, ptr, ptr, i32, %struct.anon.9, ptr, i64, i32, i32, i64, i64, %struct.CoMutex, %struct.Qcow2CryptoHeaderExtension, ptr, ptr, i8, i32, i64, i32, i32, ptr, i32, i64, i64, i32, i32, i8, i32, i32, i64, ptr, ptr, [5 x i8], i8, i32, i8, i64, i64, i64, i64, ptr, %struct.anon.10, %union.anon.11, i8, ptr, ptr, ptr, %struct.CoQueue, i32, ptr, i8, i8, i32 }
%struct.anon.9 = type { ptr }
%struct.Qcow2CryptoHeaderExtension = type { i64, i64 }
%struct.anon.10 = type { ptr }
%union.anon.11 = type { %struct.QTailQLink }

@.str.2 = private unnamed_addr constant [30 x i8] c"../qemu/block/qcow2-cluster.c\00", align 1
@.str.28 = private unnamed_addr constant [65 x i8] c"qcow2_get_cluster_type(bs, l2_entry) == QCOW2_CLUSTER_COMPRESSED\00", align 1
@__PRETTY_FUNCTION__.qcow2_parse_compressed_l2_entry = private unnamed_addr constant [86 x i8] c"void qcow2_parse_compressed_l2_entry(BlockDriverState *, uint64_t, uint64_t *, int *)\00", align 1

; Function Attrs: nounwind sspstrong uwtable
define internal zeroext i1 @has_data_file(ptr noundef %bs) #0 {
entry:
  %bs.addr = alloca ptr, align 8
  %s = alloca ptr, align 8
  store ptr %bs, ptr %bs.addr, align 8
  %0 = load ptr, ptr %bs.addr, align 8
  %opaque = getelementptr inbounds %struct.BlockDriverState, ptr %0, i32 0, i32 7
  %1 = load ptr, ptr %opaque, align 8
  store ptr %1, ptr %s, align 8
  %2 = load ptr, ptr %s, align 8
  %data_file = getelementptr inbounds %struct.BDRVQcow2State, ptr %2, i32 0, i32 66
  %3 = load ptr, ptr %data_file, align 8
  %4 = load ptr, ptr %bs.addr, align 8
  %file = getelementptr inbounds %struct.BlockDriverState, ptr %4, i32 0, i32 31
  %5 = load ptr, ptr %file, align 8
  %cmp = icmp ne ptr %3, %5
  ret i1 %cmp
}

; Function Attrs: nounwind sspstrong uwtable
define internal zeroext i1 @has_subclusters(ptr noundef %s) #0 {
entry:
  %s.addr = alloca ptr, align 8
  store ptr %s, ptr %s.addr, align 8
  %0 = load ptr, ptr %s.addr, align 8
  %incompatible_features = getelementptr inbounds %struct.BDRVQcow2State, ptr %0, i32 0, i32 53
  %1 = load i64, ptr %incompatible_features, align 8
  %and = and i64 %1, 16
  %tobool = icmp ne i64 %and, 0
  ret i1 %tobool
}

; Function Attrs: nounwind sspstrong uwtable
define internal i32 @qcow2_get_cluster_type(ptr noundef %bs, i64 noundef %l2_entry) #0 {
entry:
  %retval = alloca i32, align 4
  %bs.addr = alloca ptr, align 8
  %l2_entry.addr = alloca i64, align 8
  %s = alloca ptr, align 8
  store ptr %bs, ptr %bs.addr, align 8
  store i64 %l2_entry, ptr %l2_entry.addr, align 8
  %0 = load ptr, ptr %bs.addr, align 8
  %opaque = getelementptr inbounds %struct.BlockDriverState, ptr %0, i32 0, i32 7
  %1 = load ptr, ptr %opaque, align 8
  store ptr %1, ptr %s, align 8
  %2 = load i64, ptr %l2_entry.addr, align 8
  %and = and i64 %2, 4611686018427387904
  %tobool = icmp ne i64 %and, 0
  br i1 %tobool, label %if.then, label %if.else

if.then:                                          ; preds = %entry
  store i32 4, ptr %retval, align 4
  br label %return

if.else:                                          ; preds = %entry
  %3 = load i64, ptr %l2_entry.addr, align 8
  %and1 = and i64 %3, 1
  %tobool2 = icmp ne i64 %and1, 0
  br i1 %tobool2, label %land.lhs.true, label %if.else7

land.lhs.true:                                    ; preds = %if.else
  %4 = load ptr, ptr %s, align 8
  %call = call zeroext i1 @has_subclusters(ptr noundef %4)
  br i1 %call, label %if.else7, label %if.then3

if.then3:                                         ; preds = %land.lhs.true
  %5 = load i64, ptr %l2_entry.addr, align 8
  %and4 = and i64 %5, 72057594037927424
  %tobool5 = icmp ne i64 %and4, 0
  br i1 %tobool5, label %if.then6, label %if.end

if.then6:                                         ; preds = %if.then3
  store i32 2, ptr %retval, align 4
  br label %return

if.end:                                           ; preds = %if.then3
  store i32 1, ptr %retval, align 4
  br label %return

if.else7:                                         ; preds = %land.lhs.true, %if.else
  %6 = load i64, ptr %l2_entry.addr, align 8
  %and8 = and i64 %6, 72057594037927424
  %tobool9 = icmp ne i64 %and8, 0
  br i1 %tobool9, label %if.else17, label %if.then10

if.then10:                                        ; preds = %if.else7
  %7 = load ptr, ptr %bs.addr, align 8
  %call11 = call zeroext i1 @has_data_file(ptr noundef %7)
  br i1 %call11, label %land.lhs.true12, label %if.else16

land.lhs.true12:                                  ; preds = %if.then10
  %8 = load i64, ptr %l2_entry.addr, align 8
  %and13 = and i64 %8, -9223372036854775808
  %tobool14 = icmp ne i64 %and13, 0
  br i1 %tobool14, label %if.then15, label %if.else16

if.then15:                                        ; preds = %land.lhs.true12
  store i32 3, ptr %retval, align 4
  br label %return

if.else16:                                        ; preds = %land.lhs.true12, %if.then10
  store i32 0, ptr %retval, align 4
  br label %return

if.else17:                                        ; preds = %if.else7
  store i32 3, ptr %retval, align 4
  br label %return

return:                                           ; preds = %if.else17, %if.else16, %if.then15, %if.end, %if.then6, %if.then
  %9 = load i32, ptr %retval, align 4
  ret i32 %9
}

; Function Attrs: nounwind sspstrong uwtable
define dso_local void @qcow2_parse_compressed_l2_entry(ptr noundef %bs, i64 noundef %l2_entry, ptr noundef %coffset, ptr noundef %csize) #0 {
entry:
  %bs.addr = alloca ptr, align 8
  %l2_entry.addr = alloca i64, align 8
  %coffset.addr = alloca ptr, align 8
  %csize.addr = alloca ptr, align 8
  %s = alloca ptr, align 8
  %nb_csectors = alloca i32, align 4
  store ptr %bs, ptr %bs.addr, align 8
  store i64 %l2_entry, ptr %l2_entry.addr, align 8
  store ptr %coffset, ptr %coffset.addr, align 8
  store ptr %csize, ptr %csize.addr, align 8
  %0 = load ptr, ptr %bs.addr, align 8
  %opaque = getelementptr inbounds %struct.BlockDriverState, ptr %0, i32 0, i32 7
  %1 = load ptr, ptr %opaque, align 8
  store ptr %1, ptr %s, align 8
  %2 = load ptr, ptr %bs.addr, align 8
  %3 = load i64, ptr %l2_entry.addr, align 8
  %call = call i32 @qcow2_get_cluster_type(ptr noundef %2, i64 noundef %3)
  %cmp = icmp eq i32 %call, 4
  br i1 %cmp, label %if.then, label %if.else

if.then:                                          ; preds = %entry
  br label %if.end

if.else:                                          ; preds = %entry
  call void @__assert_fail(ptr noundef @.str.28, ptr noundef @.str.2, i32 noundef 2555, ptr noundef @__PRETTY_FUNCTION__.qcow2_parse_compressed_l2_entry) #12
  unreachable

if.end:                                           ; preds = %if.then
  %4 = load i64, ptr %l2_entry.addr, align 8
  %5 = load ptr, ptr %s, align 8
  %cluster_offset_mask = getelementptr inbounds %struct.BDRVQcow2State, ptr %5, i32 0, i32 14
  %6 = load i64, ptr %cluster_offset_mask, align 8
  %and = and i64 %4, %6
  %7 = load ptr, ptr %coffset.addr, align 8
  store i64 %and, ptr %7, align 8
  %8 = load i64, ptr %l2_entry.addr, align 8
  %9 = load ptr, ptr %s, align 8
  %csize_shift = getelementptr inbounds %struct.BDRVQcow2State, ptr %9, i32 0, i32 12
  %10 = load i32, ptr %csize_shift, align 8
  %sh_prom = zext i32 %10 to i64
  %shr = lshr i64 %8, %sh_prom
  %11 = load ptr, ptr %s, align 8
  %csize_mask = getelementptr inbounds %struct.BDRVQcow2State, ptr %11, i32 0, i32 13
  %12 = load i32, ptr %csize_mask, align 4
  %conv = sext i32 %12 to i64
  %and1 = and i64 %shr, %conv
  %add = add i64 %and1, 1
  %conv2 = trunc i64 %add to i32
  store i32 %conv2, ptr %nb_csectors, align 4
  %13 = load i32, ptr %nb_csectors, align 4
  %mul = mul i32 %13, 512
  %conv3 = zext i32 %mul to i64
  %14 = load ptr, ptr %coffset.addr, align 8
  %15 = load i64, ptr %14, align 8
  %and4 = and i64 %15, 511
  %sub = sub i64 %conv3, %and4
  %conv5 = trunc i64 %sub to i32
  %16 = load ptr, ptr %csize.addr, align 8
  store i32 %conv5, ptr %16, align 4
  ret void
}