; Function Attrs: nounwind sspstrong uwtable
define dso_local void @qcow2_parse_compressed_l2_entry(ptr noundef readonly captures(none) %bs, i64 noundef %l2_entry, ptr noundef writeonly captures(none) %coffset, ptr noundef writeonly captures(none) %csize) local_unnamed_addr #0 {
entry:
  %and.i = and i64 %l2_entry, 4611686018427387904
  %tobool.not.i = icmp eq i64 %and.i, 0
  br i1 %tobool.not.i, label %if.else.i, label %if.end

if.else.i:                                        ; preds = %entry
  tail call void @__assert_fail(ptr noundef nonnull @.str.28, ptr noundef nonnull @.str.2, i32 noundef 2555, ptr noundef nonnull @__PRETTY_FUNCTION__.qcow2_parse_compressed_l2_entry) #15
  unreachable

if.end:                                           ; preds = %entry
  %opaque = getelementptr inbounds nuw i8, ptr %bs, i64 24
  %0 = load ptr, ptr %opaque, align 8
  %cluster_offset_mask = getelementptr inbounds nuw i8, ptr %0, i64 56
  %1 = load i64, ptr %cluster_offset_mask, align 8
  %and = and i64 %1, %l2_entry
  store i64 %and, ptr %coffset, align 8
  %csize_shift = getelementptr inbounds nuw i8, ptr %0, i64 48
  %2 = load i32, ptr %csize_shift, align 8
  %sh_prom = zext nneg i32 %2 to i64
  %shr = lshr i64 %l2_entry, %sh_prom
  %csize_mask = getelementptr inbounds nuw i8, ptr %0, i64 52
  %3 = load i32, ptr %csize_mask, align 4
  %4 = trunc i64 %shr to i32
  %5 = and i32 %3, %4
  %conv2 = shl i32 %5, 9
  %6 = trunc i64 %and to i32
  %7 = and i32 %6, 511
  %reass.sub = sub i32 %conv2, %7
  %conv5 = add i32 %reass.sub, 512
  store i32 %conv5, ptr %csize, align 4
  ret void
}